; Function Attrs: mustprogress nounwind willreturn uwtable
define void @Abc_BSEvalFree(ptr noundef captures(none) %0) local_unnamed_addr #11 {
  %2 = getelementptr inbounds nuw i8, ptr %0, i64 8
  %3 = load ptr, ptr %2, align 8, !tbaa !78
  %4 = icmp eq ptr %3, null
  br i1 %4, label %Vec_IntFreeP.exit, label %5

5:                                                ; preds = %1
  %6 = getelementptr inbounds nuw i8, ptr %3, i64 8
  %7 = load ptr, ptr %6, align 8, !tbaa !18
  %.not.i = icmp eq ptr %7, null
  br i1 %.not.i, label %10, label %.thread.i

.thread.i:                                        ; preds = %5
  tail call void @free(ptr noundef nonnull %7) #24
  %8 = load ptr, ptr %2, align 8, !tbaa !78
  %9 = getelementptr inbounds nuw i8, ptr %8, i64 8
  store ptr null, ptr %9, align 8, !tbaa !18
  br label %10

10:                                               ; preds = %.thread.i, %5
  %11 = phi ptr [ %8, %.thread.i ], [ %3, %5 ]
  tail call void @free(ptr noundef nonnull %11) #24
  store ptr null, ptr %2, align 8, !tbaa !78
  br label %Vec_IntFreeP.exit

Vec_IntFreeP.exit:                                ; preds = %1, %10
  %12 = getelementptr inbounds nuw i8, ptr %0, i64 16
  %13 = load ptr, ptr %12, align 8, !tbaa !71
  %14 = getelementptr inbounds nuw i8, ptr %13, i64 8
  %15 = load ptr, ptr %14, align 8, !tbaa !18
  %.not.i7 = icmp eq ptr %15, null
  br i1 %.not.i7, label %Vec_IntFree.exit, label %16

16:                                               ; preds = %Vec_IntFreeP.exit
  tail call void @free(ptr noundef nonnull %15) #24
  br label %Vec_IntFree.exit

Vec_IntFree.exit:                                 ; preds = %Vec_IntFreeP.exit, %16
  tail call void @free(ptr noundef nonnull %13) #24
  %17 = getelementptr inbounds nuw i8, ptr %0, i64 24
  %18 = load ptr, ptr %17, align 8, !tbaa !75
  %19 = getelementptr inbounds nuw i8, ptr %18, i64 8
  %20 = load ptr, ptr %19, align 8, !tbaa !18
  %.not.i8 = icmp eq ptr %20, null
  br i1 %.not.i8, label %Vec_IntFree.exit9, label %21

21:                                               ; preds = %Vec_IntFree.exit
  tail call void @free(ptr noundef nonnull %20) #24
  br label %Vec_IntFree.exit9

Vec_IntFree.exit9:                                ; preds = %Vec_IntFree.exit, %21
  tail call void @free(ptr noundef nonnull %18) #24
  %22 = getelementptr inbounds nuw i8, ptr %0, i64 32
  %23 = load ptr, ptr %22, align 8, !tbaa !76
  %24 = getelementptr inbounds nuw i8, ptr %23, i64 8
  %25 = load ptr, ptr %24, align 8, !tbaa !18
  %.not.i10 = icmp eq ptr %25, null
  br i1 %.not.i10, label %Vec_IntFree.exit11, label %26

26:                                               ; preds = %Vec_IntFree.exit9
  tail call void @free(ptr noundef nonnull %25) #24
  br label %Vec_IntFree.exit11

Vec_IntFree.exit11:                               ; preds = %Vec_IntFree.exit9, %26
  tail call void @free(ptr noundef nonnull %23) #24
  %27 = getelementptr inbounds nuw i8, ptr %0, i64 40
  %28 = load ptr, ptr %27, align 8, !tbaa !77
  %29 = getelementptr inbounds nuw i8, ptr %28, i64 8
  %30 = load ptr, ptr %29, align 8, !tbaa !28
  %.not.i12 = icmp eq ptr %30, null
  br i1 %.not.i12, label %32, label %31

31:                                               ; preds = %Vec_IntFree.exit11
  tail call void @free(ptr noundef nonnull %30) #24
  br label %32

32:                                               ; preds = %Vec_IntFree.exit11, %31
  tail call void @free(ptr noundef nonnull %28) #24
  tail call void @free(ptr noundef nonnull %0) #24
  ret void
}